target datalayout = "e-m:e-p270:32:32-p271:32:32-p272:64:64-i64:64-i128:128-f80:128-n8:16:32:64-S128"
target triple = "x86_64-pc-linux-gnu"

%struct.ma_vec3f = type { float, float, float }
%struct.ma_atomic_vec3f = type { %struct.ma_vec3f, i32 }
%struct.ma_spatializer_listener_config = type { i32, ptr, i32, float, float, float, float, %struct.ma_vec3f }
%struct.ma_spatializer_listener = type { %struct.ma_spatializer_listener_config, %struct.ma_atomic_vec3f, %struct.ma_atomic_vec3f, %struct.ma_atomic_vec3f, i32, i32, ptr }

; Function Attrs: alwaysinline nounwind uwtable
define internal void @ma_yield() #7 {
  call void asm sideeffect "pause", "~{dirflag},~{fpsr},~{flags}"() #16, !srcloc !87
  ret void
}

; Function Attrs: alwaysinline nounwind uwtable
define internal i32 @ma_spinlock_lock_ex(ptr noundef %0, i32 noundef %1) #7 {
  %3 = alloca i32, align 4
  %4 = alloca ptr, align 8
  %5 = alloca i32, align 4
  %6 = alloca i32, align 4
  %7 = alloca i32, align 4
  %8 = alloca i32, align 4
  store ptr %0, ptr %4, align 8, !tbaa !3
  store i32 %1, ptr %5, align 4, !tbaa !8
  %9 = load ptr, ptr %4, align 8, !tbaa !3
  %10 = icmp eq ptr %9, null
  br i1 %10, label %11, label %12

11:                                               ; preds = %2
  store i32 -2, ptr %3, align 4
  br label %33

12:                                               ; preds = %2
  br label %13

13:                                               ; preds = %31, %12
  %14 = load ptr, ptr %4, align 8, !tbaa !3
  store i32 1, ptr %6, align 4, !tbaa !8
  %15 = load i32, ptr %6, align 4
  %16 = atomicrmw volatile xchg ptr %14, i32 %15 acquire, align 4
  store i32 %16, ptr %7, align 4
  %17 = load i32, ptr %7, align 4, !tbaa !8
  %18 = icmp eq i32 %17, 0
  br i1 %18, label %19, label %20

19:                                               ; preds = %13
  br label %32

20:                                               ; preds = %13
  br label %21

21:                                               ; preds = %30, %20
  %22 = load ptr, ptr %4, align 8, !tbaa !3
  %23 = load atomic volatile i32, ptr %22 monotonic, align 4
  store i32 %23, ptr %8, align 4
  %24 = load i32, ptr %8, align 4, !tbaa !8
  %25 = icmp eq i32 %24, 1
  br i1 %25, label %26, label %31

26:                                               ; preds = %21
  %27 = load i32, ptr %5, align 4, !tbaa !8
  %28 = icmp ne i32 %27, 0
  br i1 %28, label %29, label %30

29:                                               ; preds = %26
  call void @ma_yield()
  br label %30

30:                                               ; preds = %29, %26
  br label %21, !llvm.loop !49

31:                                               ; preds = %21
  br label %13

32:                                               ; preds = %19
  store i32 0, ptr %3, align 4
  br label %33

33:                                               ; preds = %32, %11
  %34 = load i32, ptr %3, align 4
  ret i32 %34
}

; Function Attrs: nounwind uwtable
define i32 @ma_spinlock_unlock(ptr noundef %0) #0 {
  %2 = alloca i32, align 4
  %3 = alloca ptr, align 8
  %4 = alloca i32, align 4
  store ptr %0, ptr %3, align 8, !tbaa !3
  %5 = load ptr, ptr %3, align 8, !tbaa !3
  %6 = icmp eq ptr %5, null
  br i1 %6, label %7, label %8

7:                                                ; preds = %1
  store i32 -2, ptr %2, align 4
  br label %11

8:                                                ; preds = %1
  %9 = load ptr, ptr %3, align 8, !tbaa !3
  store i32 0, ptr %4, align 4, !tbaa !8
  %10 = load i32, ptr %4, align 4
  store atomic volatile i32 %10, ptr %9 release, align 4
  store i32 0, ptr %2, align 4
  br label %11

11:                                               ; preds = %8, %7
  %12 = load i32, ptr %2, align 4
  ret i32 %12
}

; Function Attrs: nounwind uwtable
define i32 @ma_spinlock_lock(ptr noundef %0) #0 {
  %2 = alloca ptr, align 8
  store ptr %0, ptr %2, align 8, !tbaa !3
  %3 = load ptr, ptr %2, align 8, !tbaa !3
  %4 = call i32 @ma_spinlock_lock_ex(ptr noundef %3, i32 noundef 1)
  ret i32 %4
}

; Function Attrs: nounwind uwtable
define { <2 x float>, float } @ma_atomic_vec3f_get(ptr noundef %0) #0 {
  %2 = alloca %struct.ma_vec3f, align 4
  %3 = alloca ptr, align 8
  %4 = alloca { <2 x float>, float }, align 8
  store ptr %0, ptr %3, align 8, !tbaa !25
  %5 = load ptr, ptr %3, align 8, !tbaa !25
  %6 = getelementptr inbounds nuw %struct.ma_atomic_vec3f, ptr %5, i32 0, i32 1
  %7 = call i32 @ma_spinlock_lock(ptr noundef %6)
  %8 = load ptr, ptr %3, align 8, !tbaa !25
  %9 = getelementptr inbounds nuw %struct.ma_atomic_vec3f, ptr %8, i32 0, i32 0
  call void @llvm.memcpy.p0.p0.i64(ptr align 4 %2, ptr align 4 %9, i64 12, i1 false), !tbaa.struct !598
  %10 = load ptr, ptr %3, align 8, !tbaa !25
  %11 = getelementptr inbounds nuw %struct.ma_atomic_vec3f, ptr %10, i32 0, i32 1
  %12 = call i32 @ma_spinlock_unlock(ptr noundef %11)
  call void @llvm.memcpy.p0.p0.i64(ptr align 8 %4, ptr align 4 %2, i64 12, i1 false)
  %13 = load { <2 x float>, float }, ptr %4, align 8
  ret { <2 x float>, float } %13
}

; Function Attrs: nounwind uwtable
define { <2 x float>, float } @ma_vec3f_init_3f(float noundef %0, float noundef %1, float noundef %2) #0 {
  %4 = alloca %struct.ma_vec3f, align 4
  %5 = alloca float, align 4
  %6 = alloca float, align 4
  %7 = alloca float, align 4
  %8 = alloca { <2 x float>, float }, align 8
  store float %0, ptr %5, align 4, !tbaa !339
  store float %1, ptr %6, align 4, !tbaa !339
  store float %2, ptr %7, align 4, !tbaa !339
  %9 = load float, ptr %5, align 4, !tbaa !339
  %10 = getelementptr inbounds nuw %struct.ma_vec3f, ptr %4, i32 0, i32 0
  store float %9, ptr %10, align 4, !tbaa !594
  %11 = load float, ptr %6, align 4, !tbaa !339
  %12 = getelementptr inbounds nuw %struct.ma_vec3f, ptr %4, i32 0, i32 1
  store float %11, ptr %12, align 4, !tbaa !596
  %13 = load float, ptr %7, align 4, !tbaa !339
  %14 = getelementptr inbounds nuw %struct.ma_vec3f, ptr %4, i32 0, i32 2
  store float %13, ptr %14, align 4, !tbaa !597
  call void @llvm.memcpy.p0.p0.i64(ptr align 8 %8, ptr align 4 %4, i64 12, i1 false)
  %15 = load { <2 x float>, float }, ptr %8, align 8
  ret { <2 x float>, float } %15
}

; Function Attrs: nounwind uwtable
define { <2 x float>, float } @ma_spatializer_listener_get_position(ptr noundef %0) #14 {
  %2 = alloca %struct.ma_vec3f, align 4
  %3 = alloca ptr, align 8
  %4 = alloca { <2 x float>, float }, align 8
  %5 = alloca { <2 x float>, float }, align 8
  %6 = alloca { <2 x float>, float }, align 8
  store ptr %0, ptr %3, align 8, !tbaa !25
  %7 = load ptr, ptr %3, align 8, !tbaa !25
  %8 = icmp eq ptr %7, null
  br i1 %8, label %9, label %11

9:                                                ; preds = %1
  %10 = call { <2 x float>, float } @ma_vec3f_init_3f(float noundef 0.000000e+00, float noundef 0.000000e+00, float noundef 0.000000e+00)
  store { <2 x float>, float } %10, ptr %4, align 8
  call void @llvm.memcpy.p0.p0.i64(ptr align 4 %2, ptr align 8 %4, i64 12, i1 false)
  br label %15

11:                                               ; preds = %1
  %12 = load ptr, ptr %3, align 8, !tbaa !25
  %13 = getelementptr inbounds nuw %struct.ma_spatializer_listener, ptr %12, i32 0, i32 1
  %14 = call { <2 x float>, float } @ma_atomic_vec3f_get(ptr noundef %13)
  store { <2 x float>, float } %14, ptr %5, align 8
  call void @llvm.memcpy.p0.p0.i64(ptr align 4 %2, ptr align 8 %5, i64 12, i1 false)
  br label %15

15:                                               ; preds = %11, %9
  call void @llvm.memcpy.p0.p0.i64(ptr align 8 %6, ptr align 4 %2, i64 12, i1 false)
  %16 = load { <2 x float>, float }, ptr %6, align 8
  ret { <2 x float>, float } %16
}